; Function Attrs: nounwind uwtable
define dso_local i32 @_hash_getinitbuf(ptr noundef %0, i32 noundef %1) local_unnamed_addr #0 {
  %3 = icmp eq i32 %1, -1
  br i1 %3, label %4, label %7

4:                                                ; preds = %2
  %5 = tail call zeroext i1 @errstart_cold(i32 noundef 21, ptr noundef null) #9
  tail call void @llvm.assume(i1 %5)
  %6 = tail call i32 (ptr, ...) @errmsg_internal(ptr noundef nonnull @.str) #10
  tail call void @errfinish(ptr noundef nonnull @.str.1, i32 noundef 140, ptr noundef nonnull @__func__._hash_getinitbuf) #10
  unreachable

7:                                                ; preds = %2
  %8 = tail call i32 @ReadBufferExtended(ptr noundef %0, i32 noundef 0, i32 noundef %1, i32 noundef 1, ptr noundef null) #10
  %9 = icmp slt i32 %8, 0
  br i1 %9, label %10, label %16

10:                                               ; preds = %7
  %11 = load ptr, ptr @LocalBufferBlockPointers, align 8
  %12 = xor i32 %8, -1
  %13 = zext nneg i32 %12 to i64
  %14 = getelementptr inbounds nuw ptr, ptr %11, i64 %13
  %15 = load ptr, ptr %14, align 8
  br label %BufferGetPage.exit

16:                                               ; preds = %7
  %17 = load ptr, ptr @BufferBlocks, align 8
  %18 = add nsw i32 %8, -1
  %19 = sext i32 %18 to i64
  %20 = shl nsw i64 %19, 13
  %21 = getelementptr inbounds nuw i8, ptr %17, i64 %20
  br label %BufferGetPage.exit

BufferGetPage.exit:                               ; preds = %10, %16
  %.0.i.i = phi ptr [ %15, %10 ], [ %21, %16 ]
  tail call void @PageInit(ptr noundef %.0.i.i, i64 noundef 8192, i64 noundef 16) #10
  ret i32 %8
}